(dp1
S'pynet-rtr2.twb-tech.com'
p2
ccopy_reg
_reconstructor
p3
(c__main__
NetworkDevice
p4
c__builtin__
tuple
p5
(S'284636391'
p6
S'284586823'
p7
I00
ttRp8
sS'pynet-rtr1.twb-tech.com'
p9
g3
(g4
g5
(S'284632638'
p10
S'191308912'
p11
I00
ttRp12
s.