ccopy_reg
_reconstructor
p0
(c__main__
NetworkDevice
p1
c__builtin__
object
p2
Ntp3
Rp4
(dp5
S'username'
p6
S'pyclass'
p7
sS'uptime'
p8
I2368020
sS'vendor'
p9
S'Cisco'
p10
sS'show_version'
p11
S'\r\npynet-rtr1#show version\r\nCisco IOS Software, C880 Software (C880DATA-UNIVERSALK9-M), Version 15.4(2)T1, RELEASE SOFTWARE (fc3)\r\nTechnical Support: http://www.cisco.com/techsupport\r\nCopyright (c) 1986-2014 by Cisco Systems, Inc.\r\nCompiled Thu 26-Jun-14 14:15 by prod_rel_team\r\n\r\nROM: System Bootstrap, Version 12.4(22r)YB5, RELEASE SOFTWARE (fc1)\r\n\r\npynet-rtr1 uptime is 3 weeks, 6 days, 9 hours, 47 minutes\r\nSystem returned to ROM by power-on\r\nSystem restarted at 12:13:05 PDT Fri Jul 17 2015\r\nSystem image file is "flash:c880data-universalk9-mz.154-2.T1.bin"\r\nLast reload type: Normal Reload\r\nLast reload reason: power-on\r\n\r\n\r\n\r\nThis product contains cryptographic features and is subject to United\r\nStates and local country laws governing import, export, transfer and\r\nuse. Delivery of Cisco cryptographic products does not imply\r\nthird-party authority to import, export, distribute or use encryption.\r\nImporters, exporters, distributors and users are responsible for\r\ncompliance with U.S. and local country laws. By using this product you\r\nagree to comply with applicable laws and regulations. If you are unable\r\nto comply with U.S. and local laws, return this product immediately.\r\n\r\nA summary of U.S. laws governing Cisco cryptographic products may be found at:\r\nhttp://www.cisco.com/wwl/export/crypto/tool/stqrg.html\r\n\r\nIf you require further assistance please contact us by sending email to\r\nexport@cisco.com.\r\n\r\nCisco 881 (MPC8300) processor (revision 1.0) with 236544K/25600K bytes of memory.\r\nProcessor board ID FTX1512038X\r\n\r\n5 FastEthernet interfaces\r\n1 Virtual Private Network (VPN) Module\r\n256K bytes of non-volatile configuration memory.\r\n126000K bytes of ATA CompactFlash (Read/Write)\r\n\r\n\r\nLicense Info:\r\n\r\nLicense UDI:\r\n\r\n-------------------------------------------------\r\nDevice#\t  PID\t\t\tSN\r\n-------------------------------------------------\r\n*0  \t  CISCO881-SEC-K9       FTX1512038X     \r\n\r\n\r\n\r\nLicense Information for \'c880-data\'\r\n    License Level: advipservices   Type: Permanent\r\n    Next reboot license Level: advipservices\r\n\r\n\r\nConfiguration register is 0x2102\r\n\r\npynet-rtr1#'
p12
sS'ip'
p13
S'50.76.53.27'
p14
sS'hostname'
p15
S'pynet-rtr1'
p16
sS'os_version'
p17
S'15.4(2)T1'
p18
sS'device_type'
p19
S'router'
p20
sS'serial_number'
p21
S'FTX1512038X'
p22
sS'model'
p23
S'881'
p24
sS'password'
p25
S'88newclass'
p26
sb.